target datalayout = "e-m:e-p270:32:32-p271:32:32-p272:64:64-i64:64-i128:128-f80:128-n8:16:32:64-S128"
target triple = "x86_64-pc-linux-gnu"

%struct.NMTPreInitAllocation = type { ptr, i64, ptr }

@.str.5 = private unnamed_addr constant [37 x i8] c"src/hotspot/share/nmt/nmtPreInit.cpp\00", align 1
@.str.6 = private unnamed_addr constant [30 x i8] c"VM early initialization phase\00", align 1

; Function Attrs: mustprogress nounwind uwtable
define internal noundef ptr @_ZL10raw_mallocm(i64 noundef %0) #1 {
  %2 = alloca i64, align 8
  store i64 %0, ptr %2, align 8
  %3 = load i64, ptr %2, align 8
  %4 = call noalias ptr @malloc(i64 noundef %3) #10
  ret ptr %4
}

; Function Attrs: mustprogress nounwind uwtable
define internal void @_ZL8raw_freePv(ptr noundef %0) #1 {
  %2 = alloca ptr, align 8
  store ptr %0, ptr %2, align 8
  %3 = load ptr, ptr %2, align 8
  call void @free(ptr noundef %3) #9
  ret void
}

; Function Attrs: mustprogress nounwind uwtable
define internal noundef ptr @_ZL18raw_checked_mallocm(i64 noundef %0) #1 {
  %2 = alloca i64, align 8
  %3 = alloca ptr, align 8
  store i64 %0, ptr %2, align 8
  %4 = load i64, ptr %2, align 8
  %5 = call noundef ptr @_ZL10raw_mallocm(i64 noundef %4)
  store ptr %5, ptr %3, align 8
  %6 = load ptr, ptr %3, align 8
  %7 = icmp eq ptr %6, null
  br i1 %7, label %8, label %12

8:                                                ; preds = %1
  br label %9

9:                                                ; preds = %8
  %10 = load i64, ptr %2, align 8
  call void (ptr, i32, i64, i32, ptr, ...) @_Z23report_vm_out_of_memoryPKcim11VMErrorTypeS0_z(ptr noundef @.str.5, i32 noundef 47, i64 noundef %10, i32 noundef -536870911, ptr noundef @.str.6) #8
  unreachable

11:                                               ; No predecessors!
  br label %12

12:                                               ; preds = %11, %1
  %13 = load ptr, ptr %3, align 8
  ret ptr %13
}

; Function Attrs: mustprogress nounwind uwtable
define internal noundef ptr @_ZL11raw_reallocPvm(ptr noundef %0, i64 noundef %1) #1 {
  %3 = alloca ptr, align 8
  %4 = alloca i64, align 8
  store ptr %0, ptr %3, align 8
  store i64 %1, ptr %4, align 8
  %5 = load ptr, ptr %3, align 8
  %6 = load i64, ptr %4, align 8
  %7 = call ptr @realloc(ptr noundef %5, i64 noundef %6) #11
  ret ptr %7
}

; Function Attrs: mustprogress nounwind uwtable
define hidden void @_ZN20NMTPreInitAllocationdlEPv(ptr noundef %0) #1 align 2 {
  %2 = alloca ptr, align 8
  store ptr %0, ptr %2, align 8
  %3 = load ptr, ptr %2, align 8
  call void @_ZL8raw_freePv(ptr noundef %3)
  ret void
}

; Function Attrs: mustprogress nounwind uwtable
define linkonce_odr hidden void @_ZN20NMTPreInitAllocationC2EmPv(ptr noundef nonnull align 8 dereferenceable(24) %0, i64 noundef %1, ptr noundef %2) unnamed_addr #1 comdat align 2 {
  %4 = alloca ptr, align 8
  %5 = alloca i64, align 8
  %6 = alloca ptr, align 8
  store ptr %0, ptr %4, align 8
  store i64 %1, ptr %5, align 8
  store ptr %2, ptr %6, align 8
  %7 = load ptr, ptr %4, align 8
  %8 = getelementptr inbounds %struct.NMTPreInitAllocation, ptr %7, i32 0, i32 0
  store ptr null, ptr %8, align 8
  %9 = getelementptr inbounds %struct.NMTPreInitAllocation, ptr %7, i32 0, i32 1
  %10 = load i64, ptr %5, align 8
  store i64 %10, ptr %9, align 8
  %11 = getelementptr inbounds %struct.NMTPreInitAllocation, ptr %7, i32 0, i32 2
  %12 = load ptr, ptr %6, align 8
  store ptr %12, ptr %11, align 8
  ret void
}

; Function Attrs: mustprogress nounwind uwtable
define hidden noundef ptr @_ZN20NMTPreInitAllocationnwEm(i64 noundef %0) #1 align 2 {
  %2 = alloca i64, align 8
  store i64 %0, ptr %2, align 8
  %3 = load i64, ptr %2, align 8
  %4 = call noundef ptr @_ZL18raw_checked_mallocm(i64 noundef %3)
  ret ptr %4
}

; Function Attrs: mustprogress nounwind uwtable
define internal noundef ptr @_ZL19raw_checked_reallocPvm(ptr noundef %0, i64 noundef %1) #1 {
  %3 = alloca ptr, align 8
  %4 = alloca i64, align 8
  %5 = alloca ptr, align 8
  store ptr %0, ptr %3, align 8
  store i64 %1, ptr %4, align 8
  %6 = load ptr, ptr %3, align 8
  %7 = load i64, ptr %4, align 8
  %8 = call noundef ptr @_ZL11raw_reallocPvm(ptr noundef %6, i64 noundef %7)
  store ptr %8, ptr %5, align 8
  %9 = load ptr, ptr %5, align 8
  %10 = icmp eq ptr %9, null
  br i1 %10, label %11, label %15

11:                                               ; preds = %2
  br label %12

12:                                               ; preds = %11
  %13 = load i64, ptr %4, align 8
  call void (ptr, i32, i64, i32, ptr, ...) @_Z23report_vm_out_of_memoryPKcim11VMErrorTypeS0_z(ptr noundef @.str.5, i32 noundef 55, i64 noundef %13, i32 noundef -536870911, ptr noundef @.str.6) #8
  unreachable

14:                                               ; No predecessors!
  br label %15

15:                                               ; preds = %14, %2
  %16 = load ptr, ptr %5, align 8
  ret ptr %16
}

; Function Attrs: mustprogress nounwind uwtable
define hidden noundef ptr @_ZN20NMTPreInitAllocation13do_reallocateEPS_m(ptr noundef %0, i64 noundef %1) #1 align 2 {
  %3 = alloca ptr, align 8
  %4 = alloca i64, align 8
  %5 = alloca ptr, align 8
  %6 = alloca ptr, align 8
  store ptr %0, ptr %3, align 8
  store i64 %1, ptr %4, align 8
  %7 = load ptr, ptr %3, align 8
  %8 = getelementptr inbounds %struct.NMTPreInitAllocation, ptr %7, i32 0, i32 2
  %9 = load ptr, ptr %8, align 8
  %10 = load i64, ptr %4, align 8
  %11 = call noundef ptr @_ZL19raw_checked_reallocPvm(ptr noundef %9, i64 noundef %10)
  store ptr %11, ptr %5, align 8
  %12 = call noundef ptr @_ZN20NMTPreInitAllocationnwEm(i64 noundef 24)
  %13 = load i64, ptr %4, align 8
  %14 = load ptr, ptr %5, align 8
  call void @_ZN20NMTPreInitAllocationC2EmPv(ptr noundef nonnull align 8 dereferenceable(24) %12, i64 noundef %13, ptr noundef %14)
  store ptr %12, ptr %6, align 8
  %15 = load ptr, ptr %3, align 8
  %16 = icmp eq ptr %15, null
  br i1 %16, label %18, label %17

17:                                               ; preds = %2
  call void @_ZN20NMTPreInitAllocationdlEPv(ptr noundef %15) #9
  br label %18

18:                                               ; preds = %17, %2
  %19 = load ptr, ptr %6, align 8
  ret ptr %19
}