; Function Attrs: mustprogress nounwind uwtable
define hidden noalias noundef ptr @_ZN20NMTPreInitAllocation13do_reallocateEPS_m(ptr nocapture noundef %0, i64 noundef %1) local_unnamed_addr #0 align 2 {
  %3 = getelementptr inbounds i8, ptr %0, i64 16
  %4 = load ptr, ptr %3, align 8
  %5 = tail call noalias noundef ptr @realloc(ptr noundef %4, i64 noundef %1) #14
  %6 = icmp eq ptr %5, null
  br i1 %6, label %7, label %_ZL19raw_checked_reallocPvm.exit

7:                                                ; preds = %2
  tail call void (ptr, i32, i64, i32, ptr, ...) @_Z23report_vm_out_of_memoryPKcim11VMErrorTypeS0_z(ptr noundef nonnull @.str.5, i32 noundef 55, i64 noundef %1, i32 noundef -536870911, ptr noundef nonnull @.str.6) #12
  unreachable

_ZL19raw_checked_reallocPvm.exit:                 ; preds = %2
  %8 = tail call noalias noundef dereferenceable_or_null(24) ptr @malloc(i64 noundef 24) #11
  %9 = icmp eq ptr %8, null
  br i1 %9, label %10, label %11

10:                                               ; preds = %_ZL19raw_checked_reallocPvm.exit
  tail call void (ptr, i32, i64, i32, ptr, ...) @_Z23report_vm_out_of_memoryPKcim11VMErrorTypeS0_z(ptr noundef nonnull @.str.5, i32 noundef 47, i64 noundef 24, i32 noundef -536870911, ptr noundef nonnull @.str.6) #12
  unreachable

11:                                               ; preds = %_ZL19raw_checked_reallocPvm.exit
  store ptr null, ptr %8, align 8
  %12 = getelementptr inbounds i8, ptr %8, i64 8
  store i64 %1, ptr %12, align 8
  %13 = getelementptr inbounds i8, ptr %8, i64 16
  store ptr %5, ptr %13, align 8
  tail call void @free(ptr noundef nonnull %0) #13
  ret ptr %8
}